Certificate:
    Data:
        Version: 3 (0x2)
        Serial Number: 2 (0x2)
        Signature Algorithm: sha1WithRSAEncryption
        Issuer: DC=org, DC=simple, O=Simple Inc, OU=Simple Root CA, CN=Simple Root CA
        Validity
            Not Before: Nov 23 11:52:49 2020 GMT
            Not After : Nov 23 11:52:49 2030 GMT
        Subject: DC=org, DC=simple, O=Simple Inc, OU=Simple Signing CA, CN=Simple Signing CA
        Subject Public Key Info:
            Public Key Algorithm: rsaEncryption
                RSA Public-Key: (2048 bit)
                Modulus:
                    00:bd:e5:50:cc:dd:5a:fb:54:05:85:e8:43:ad:c4:
                    33:c5:19:5f:d6:48:ec:7e:18:41:df:36:60:f8:1e:
                    3a:3c:be:35:cd:21:56:b8:52:d0:9d:96:04:ae:5c:
                    c7:47:cb:d7:42:6f:dd:ed:e1:ac:94:2f:8b:42:e4:
                    79:9d:05:1b:93:61:b5:c5:77:6c:68:3c:cf:2d:79:
                    a5:10:af:96:8e:9e:31:d8:18:ad:63:40:27:c1:b5:
                    d8:52:b7:40:a9:cb:46:2f:87:ef:d8:19:3d:90:64:
                    75:19:53:00:77:25:74:f8:ae:5d:a9:9f:9b:3c:8b:
                    5b:45:2e:0d:84:80:04:8d:02:d6:61:ba:4e:c6:10:
                    1d:1b:d8:c7:66:12:cd:22:bc:d5:84:fc:17:9f:51:
                    fa:11:63:e6:7c:0b:32:43:53:60:3a:a9:91:8b:01:
                    e2:f4:5d:e1:74:af:2c:ad:0a:22:2a:19:7f:7f:e6:
                    65:91:79:62:59:8b:1e:60:e9:91:33:2d:e6:dd:03:
                    a4:6f:ab:5e:42:1b:ec:4c:52:7b:c9:00:b9:a9:9f:
                    1d:f8:9a:72:0e:0d:a0:47:99:fa:ce:81:46:f3:dc:
                    c0:57:2d:72:59:41:12:5d:3e:8f:fb:fd:c4:8d:75:
                    35:7d:b1:a8:8c:4d:85:3f:69:e8:1b:da:be:df:6c:
                    53:91
                Exponent: 65537 (0x10001)
        X509v3 extensions:
            X509v3 Key Usage: critical
                Certificate Sign, CRL Sign
            X509v3 Basic Constraints: critical
                CA:TRUE, pathlen:0
            X509v3 Subject Key Identifier: 
                9C:2E:FD:D1:CE:5A:61:41:3B:8F:DD:BD:6B:88:19:62:E0:58:37:BD
            X509v3 Authority Key Identifier: 
                keyid:22:45:2F:5E:FA:18:69:1D:87:26:39:DC:45:0F:4F:F0:71:D4:2B:2D

    Signature Algorithm: sha1WithRSAEncryption
         59:ad:05:1a:3d:73:2c:76:11:4c:11:8c:fd:32:42:c2:8f:8b:
         c0:d6:e9:19:5e:5b:64:b7:b0:20:e1:37:e7:ef:f1:28:03:43:
         ea:76:77:72:8e:42:1e:fc:ee:e1:ba:5d:b6:4b:52:5a:5a:d5:
         fc:fe:d5:f7:85:3d:5b:ea:ae:6a:6e:46:12:32:75:1f:de:de:
         9a:98:8c:53:d5:d2:46:32:f9:50:11:0a:f3:ab:4d:17:24:1a:
         6c:c7:3c:1e:56:78:34:ff:ff:76:89:5c:5d:fa:ea:25:30:a3:
         8c:e1:85:bf:5d:3f:14:ff:80:73:fe:c2:e9:bb:94:15:c6:b6:
         a6:71:24:ec:5f:9d:3b:87:84:d2:77:b9:ba:6a:b1:3f:a4:da:
         30:2a:cc:24:f4:a3:db:c4:fd:9e:74:e0:ba:ff:67:aa:27:49:
         ca:a2:91:7a:4e:b2:83:9d:cc:e1:6b:36:c5:3f:02:42:06:ce:
         31:d2:2b:92:c5:53:e5:0e:4d:85:c0:97:41:6e:84:6d:20:8d:
         a1:36:8b:ac:2c:d3:64:cc:6d:13:cf:94:56:f4:eb:b1:30:2a:
         22:77:e6:9b:05:c0:7c:0b:81:d6:b4:58:95:f7:b4:f0:14:44:
         bd:6e:ce:c6:2a:c0:9b:8d:9e:2d:6a:a7:e2:3e:fa:c8:d3:74:
         24:ae:67:50
-----BEGIN CERTIFICATE-----
MIIDzzCCAregAwIBAgIBAjANBgkqhkiG9w0BAQUFADB0MRMwEQYKCZImiZPyLGQB
GRYDb3JnMRYwFAYKCZImiZPyLGQBGRYGc2ltcGxlMRMwEQYDVQQKDApTaW1wbGUg
SW5jMRcwFQYDVQQLDA5TaW1wbGUgUm9vdCBDQTEXMBUGA1UEAwwOU2ltcGxlIFJv
b3QgQ0EwHhcNMjAxMTIzMTE1MjQ5WhcNMzAxMTIzMTE1MjQ5WjB6MRMwEQYKCZIm
iZPyLGQBGRYDb3JnMRYwFAYKCZImiZPyLGQBGRYGc2ltcGxlMRMwEQYDVQQKDApT
aW1wbGUgSW5jMRowGAYDVQQLDBFTaW1wbGUgU2lnbmluZyBDQTEaMBgGA1UEAwwR
U2ltcGxlIFNpZ25pbmcgQ0EwggEiMA0GCSqGSIb3DQEBAQUAA4IBDwAwggEKAoIB
AQC95VDM3Vr7VAWF6EOtxDPFGV/WSOx+GEHfNmD4Hjo8vjXNIVa4UtCdlgSuXMdH
y9dCb93t4ayUL4tC5HmdBRuTYbXFd2xoPM8teaUQr5aOnjHYGK1jQCfBtdhSt0Cp
y0Yvh+/YGT2QZHUZUwB3JXT4rl2pn5s8i1tFLg2EgASNAtZhuk7GEB0b2MdmEs0i
vNWE/BefUfoRY+Z8CzJDU2A6qZGLAeL0XeF0ryytCiIqGX9/5mWReWJZix5g6ZEz
LebdA6Rvq15CG+xMUnvJALmpnx34mnIODaBHmfrOgUbz3MBXLXJZQRJdPo/7/cSN
dTV9saiMTYU/aegb2r7fbFORAgMBAAGjZjBkMA4GA1UdDwEB/wQEAwIBBjASBgNV
HRMBAf8ECDAGAQH/AgEAMB0GA1UdDgQWBBScLv3RzlphQTuP3b1riBli4Fg3vTAf
BgNVHSMEGDAWgBQiRS9e+hhpHYcmOdxFD0/wcdQrLTANBgkqhkiG9w0BAQUFAAOC
AQEAWa0FGj1zLHYRTBGM/TJCwo+LwNbpGV5bZLewIOE35+/xKAND6nZ3co5CHvzu
4bpdtktSWlrV/P7V94U9W+quam5GEjJ1H97empiMU9XSRjL5UBEK86tNFyQabMc8
HlZ4NP//dolcXfrqJTCjjOGFv10/FP+Ac/7C6buUFca2pnEk7F+dO4eE0ne5umqx
P6TaMCrMJPSj28T9nnTguv9nqidJyqKRek6yg53M4Ws2xT8CQgbOMdIrksVT5Q5N
hcCXQW6EbSCNoTaLrCzTZMxtE8+UVvTrsTAqInfmmwXAfAuB1rRYlfe08BREvW7O
xirAm42eLWqn4j76yNN0JK5nUA==
-----END CERTIFICATE-----
